; Function Attrs: mustprogress nofree norecurse nosync nounwind willreturn memory(argmem: read) uwtable
define internal range(i32 -1, 2) i32 @CompareHuffmanTrees(ptr noundef readonly captures(none) %0, ptr noundef readonly captures(none) %1) #6 {
  %3 = load i32, ptr %0, align 4, !tbaa !26
  %4 = load i32, ptr %1, align 4, !tbaa !26
  %5 = icmp ugt i32 %3, %4
  br i1 %5, label %15, label %6

6:                                                ; preds = %2
  %7 = icmp ult i32 %3, %4
  br i1 %7, label %15, label %8

8:                                                ; preds = %6
  %9 = getelementptr inbounds nuw i8, ptr %0, i64 4
  %10 = load i32, ptr %9, align 4, !tbaa !28
  %11 = getelementptr inbounds nuw i8, ptr %1, i64 4
  %12 = load i32, ptr %11, align 4, !tbaa !28
  %13 = icmp slt i32 %10, %12
  %14 = select i1 %13, i32 -1, i32 1
  br label %15

15:                                               ; preds = %6, %2, %8
  %.0 = phi i32 [ %14, %8 ], [ -1, %2 ], [ 1, %6 ]
  ret i32 %.0
}